target datalayout = "e-m:e-p270:32:32-p271:32:32-p272:64:64-i64:64-i128:128-f80:128-n8:16:32:64-S128"
target triple = "x86_64-pc-linux-gnu"

; Function Attrs: mustprogress uwtable
define dso_local void @_ZN17cmGlobalGenerator26CreateDefaultGlobalTargetsERSt6vectorINS_16GlobalTargetInfoESaIS1_EE(ptr noundef nonnull align 8 dereferenceable(1778) %0, ptr noundef nonnull align 8 dereferenceable(24) %1) #4 align 2 {
  %3 = alloca ptr, align 8
  %4 = alloca ptr, align 8
  store ptr %0, ptr %3, align 8
  store ptr %1, ptr %4, align 8
  %5 = load ptr, ptr %3, align 8
  %6 = load ptr, ptr %4, align 8
  call void @_ZN17cmGlobalGenerator23AddGlobalTarget_PackageERSt6vectorINS_16GlobalTargetInfoESaIS1_EE(ptr noundef nonnull align 8 dereferenceable(1778) %5, ptr noundef nonnull align 8 dereferenceable(24) %6)
  %7 = load ptr, ptr %4, align 8
  call void @_ZN17cmGlobalGenerator29AddGlobalTarget_PackageSourceERSt6vectorINS_16GlobalTargetInfoESaIS1_EE(ptr noundef nonnull align 8 dereferenceable(1778) %5, ptr noundef nonnull align 8 dereferenceable(24) %7)
  %8 = load ptr, ptr %4, align 8
  call void @_ZN17cmGlobalGenerator20AddGlobalTarget_TestERSt6vectorINS_16GlobalTargetInfoESaIS1_EE(ptr noundef nonnull align 8 dereferenceable(1778) %5, ptr noundef nonnull align 8 dereferenceable(24) %8)
  %9 = load ptr, ptr %4, align 8
  call void @_ZNK17cmGlobalGenerator25AddGlobalTarget_EditCacheERSt6vectorINS_16GlobalTargetInfoESaIS1_EE(ptr noundef nonnull align 8 dereferenceable(1778) %5, ptr noundef nonnull align 8 dereferenceable(24) %9)
  %10 = load ptr, ptr %4, align 8
  call void @_ZNK17cmGlobalGenerator28AddGlobalTarget_RebuildCacheERSt6vectorINS_16GlobalTargetInfoESaIS1_EE(ptr noundef nonnull align 8 dereferenceable(1778) %5, ptr noundef nonnull align 8 dereferenceable(24) %10)
  %11 = load ptr, ptr %4, align 8
  call void @_ZN17cmGlobalGenerator23AddGlobalTarget_InstallERSt6vectorINS_16GlobalTargetInfoESaIS1_EE(ptr noundef nonnull align 8 dereferenceable(1778) %5, ptr noundef nonnull align 8 dereferenceable(24) %11)
  ret void
}