; Function Attrs: mustprogress uwtable
define dso_local void @_ZN17cmGlobalGenerator26CreateDefaultGlobalTargetsERSt6vectorINS_16GlobalTargetInfoESaIS1_EE(ptr noundef nonnull align 8 dereferenceable(1778) %0, ptr noundef nonnull align 8 dereferenceable(24) %1) local_unnamed_addr #3 align 2 {
  tail call void @_ZN17cmGlobalGenerator23AddGlobalTarget_PackageERSt6vectorINS_16GlobalTargetInfoESaIS1_EE(ptr noundef nonnull align 8 dereferenceable(1778) %0, ptr noundef nonnull align 8 dereferenceable(24) %1)
  tail call void @_ZN17cmGlobalGenerator29AddGlobalTarget_PackageSourceERSt6vectorINS_16GlobalTargetInfoESaIS1_EE(ptr noundef nonnull align 8 dereferenceable(1778) %0, ptr noundef nonnull align 8 dereferenceable(24) %1)
  tail call void @_ZN17cmGlobalGenerator20AddGlobalTarget_TestERSt6vectorINS_16GlobalTargetInfoESaIS1_EE(ptr noundef nonnull align 8 dereferenceable(1778) %0, ptr noundef nonnull align 8 dereferenceable(24) %1)
  tail call void @_ZNK17cmGlobalGenerator25AddGlobalTarget_EditCacheERSt6vectorINS_16GlobalTargetInfoESaIS1_EE(ptr noundef nonnull align 8 dereferenceable(1778) %0, ptr noundef nonnull align 8 dereferenceable(24) %1)
  tail call void @_ZNK17cmGlobalGenerator28AddGlobalTarget_RebuildCacheERSt6vectorINS_16GlobalTargetInfoESaIS1_EE(ptr noundef nonnull align 8 dereferenceable(1778) %0, ptr noundef nonnull align 8 dereferenceable(24) %1)
  tail call void @_ZN17cmGlobalGenerator23AddGlobalTarget_InstallERSt6vectorINS_16GlobalTargetInfoESaIS1_EE(ptr noundef nonnull align 8 dereferenceable(1778) %0, ptr noundef nonnull align 8 dereferenceable(24) %1)
  ret void
}